; Function Attrs: nounwind uwtable
define nonnull ptr @l_Lean_Linter_isDeprecated___boxed(ptr noundef %0, ptr noundef %1) local_unnamed_addr #0 {
  %3 = load ptr, ptr @l_Lean_Linter_instInhabitedDeprecationEntry, align 8, !tbaa !4
  %4 = load ptr, ptr @l_Lean_Linter_isDeprecated___closed__1, align 8, !tbaa !4
  %5 = tail call ptr @l_Lean_ParametricAttribute_getParam_x3f___rarg(ptr noundef %3, ptr noundef %4, ptr noundef %0, ptr noundef %1) #4
  %6 = ptrtoint ptr %5 to i64
  %7 = and i64 %6, 1
  %.not.i8.i = icmp eq i64 %7, 0
  br i1 %.not.i8.i, label %lean_obj_tag.exit.thread.i, label %lean_obj_tag.exit.i

lean_obj_tag.exit.i:                              ; preds = %2
  %8 = and i64 %6, 8589934590
  %.not = icmp eq i64 %8, 0
  %9 = select i1 %.not, i64 1, i64 3
  br label %l_Lean_Linter_isDeprecated.exit

lean_obj_tag.exit.thread.i:                       ; preds = %2
  %10 = getelementptr i8, ptr %5, i64 4
  %.val.i.i = load i32, ptr %10, align 4
  %11 = icmp ult i32 %.val.i.i, 16777216
  br i1 %11, label %l_Lean_Linter_isDeprecated.exit, label %.thread.i

.thread.i:                                        ; preds = %lean_obj_tag.exit.thread.i
  %12 = load i32, ptr %5, align 4, !tbaa !8
  %13 = icmp sgt i32 %12, 1
  br i1 %13, label %14, label %16, !prof !11

14:                                               ; preds = %.thread.i
  %15 = add nsw i32 %12, -1
  store i32 %15, ptr %5, align 4, !tbaa !8
  br label %l_Lean_Linter_isDeprecated.exit

16:                                               ; preds = %.thread.i
  %.not.i.i = icmp eq i32 %12, 0
  br i1 %.not.i.i, label %l_Lean_Linter_isDeprecated.exit, label %17

17:                                               ; preds = %16
  tail call void @lean_dec_ref_cold(ptr noundef nonnull %5) #4
  br label %l_Lean_Linter_isDeprecated.exit

l_Lean_Linter_isDeprecated.exit:                  ; preds = %lean_obj_tag.exit.i, %lean_obj_tag.exit.thread.i, %14, %16, %17
  %.0.i = phi i64 [ 1, %lean_obj_tag.exit.thread.i ], [ 3, %17 ], [ 3, %16 ], [ 3, %14 ], [ %9, %lean_obj_tag.exit.i ]
  %18 = inttoptr i64 %.0.i to ptr
  ret ptr %18
}